target datalayout = "e-m:e-p270:32:32-p271:32:32-p272:64:64-i64:64-i128:128-f80:128-n8:16:32:64-S128"
target triple = "x86_64-pc-linux-gnu"

%struct.AVFilterContext = type { ptr, ptr, ptr, ptr, ptr, i32, ptr, ptr, i32, ptr, ptr, i32, i32, ptr, ptr, ptr, ptr, i32, ptr, i32, i32 }
%struct.FieldHintContext = type { ptr, ptr, ptr, i32, [3 x ptr], i64, i32, i32, [4 x i32], [4 x i32] }

; Function Attrs: cold nounwind optsize uwtable
define internal void @uninit(ptr noundef %0) #0 {
  %2 = alloca ptr, align 8
  %3 = alloca ptr, align 8
  store ptr %0, ptr %2, align 8, !tbaa !4
  call void @llvm.lifetime.start.p0(i64 8, ptr %3) #10
  %4 = load ptr, ptr %2, align 8, !tbaa !4
  %5 = getelementptr inbounds nuw %struct.AVFilterContext, ptr %4, i32 0, i32 9
  %6 = load ptr, ptr %5, align 8, !tbaa !9
  store ptr %6, ptr %3, align 8, !tbaa !22
  %7 = load ptr, ptr %3, align 8, !tbaa !22
  %8 = getelementptr inbounds nuw %struct.FieldHintContext, ptr %7, i32 0, i32 2
  %9 = load ptr, ptr %8, align 8, !tbaa !28
  %10 = icmp ne ptr %9, null
  br i1 %10, label %11, label %16

11:                                               ; preds = %1
  %12 = load ptr, ptr %3, align 8, !tbaa !22
  %13 = getelementptr inbounds nuw %struct.FieldHintContext, ptr %12, i32 0, i32 2
  %14 = load ptr, ptr %13, align 8, !tbaa !28
  %15 = call i32 @fclose(ptr noundef %14)
  br label %16

16:                                               ; preds = %11, %1
  %17 = load ptr, ptr %3, align 8, !tbaa !22
  %18 = getelementptr inbounds nuw %struct.FieldHintContext, ptr %17, i32 0, i32 2
  store ptr null, ptr %18, align 8, !tbaa !28
  %19 = load ptr, ptr %3, align 8, !tbaa !22
  %20 = getelementptr inbounds nuw %struct.FieldHintContext, ptr %19, i32 0, i32 4
  %21 = getelementptr inbounds [3 x ptr], ptr %20, i64 0, i64 0
  call void @av_frame_free(ptr noundef %21)
  %22 = load ptr, ptr %3, align 8, !tbaa !22
  %23 = getelementptr inbounds nuw %struct.FieldHintContext, ptr %22, i32 0, i32 4
  %24 = getelementptr inbounds [3 x ptr], ptr %23, i64 0, i64 1
  call void @av_frame_free(ptr noundef %24)
  %25 = load ptr, ptr %3, align 8, !tbaa !22
  %26 = getelementptr inbounds nuw %struct.FieldHintContext, ptr %25, i32 0, i32 4
  %27 = getelementptr inbounds [3 x ptr], ptr %26, i64 0, i64 2
  call void @av_frame_free(ptr noundef %27)
  call void @llvm.lifetime.end.p0(i64 8, ptr %3) #10
  ret void
}