; Function Attrs: cold nounwind optsize uwtable
define internal void @uninit(ptr noundef readonly captures(none) %0) #0 {
  %2 = getelementptr inbounds nuw i8, ptr %0, i64 72
  %3 = load ptr, ptr %2, align 8, !tbaa !4
  %4 = getelementptr inbounds nuw i8, ptr %3, i64 16
  %5 = load ptr, ptr %4, align 8, !tbaa !24
  %.not = icmp eq ptr %5, null
  br i1 %.not, label %8, label %6

6:                                                ; preds = %1
  %7 = tail call i32 @fclose(ptr noundef nonnull %5)
  br label %8

8:                                                ; preds = %6, %1
  store ptr null, ptr %4, align 8, !tbaa !24
  %9 = getelementptr inbounds nuw i8, ptr %3, i64 32
  tail call void @av_frame_free(ptr noundef nonnull %9) #9
  %10 = getelementptr inbounds nuw i8, ptr %3, i64 40
  tail call void @av_frame_free(ptr noundef nonnull %10) #9
  %11 = getelementptr inbounds nuw i8, ptr %3, i64 48
  tail call void @av_frame_free(ptr noundef nonnull %11) #9
  ret void
}